; ModuleID = '22/311.c'
source_filename = "22/311.c"
target datalayout = "e-m:e-p270:32:32-p271:32:32-p272:64:64-i64:64-f80:128-n8:16:32:64-S128"
target triple = "x86_64-pc-linux-gnu"

@.str = private unnamed_addr constant [3 x i8] c"No\00", align 1
@.str.1 = private unnamed_addr constant [3 x i8] c"%d\00", align 1

; Function Attrs: noinline nounwind uwtable
define dso_local void @main() #0 {
  %1 = alloca i8, align 1
  %2 = alloca i32, align 4
  %3 = alloca i32, align 4
  %4 = alloca i32, align 4
  %5 = alloca i32, align 4
  %6 = alloca i32, align 4
  %7 = alloca i32, align 4
  %8 = alloca i32, align 4
  %9 = alloca [300 x i32], align 16
  %10 = alloca i32, align 4
  store i32 0, i32* %2, align 4
  %11 = bitcast [300 x i32]* %9 to i8*
  call void @llvm.memset.p0i8.i64(i8* align 16 %11, i8 0, i64 1200, i1 false)
  br label %12

12:                                               ; preds = %37, %0
  %13 = call i32 @getchar()
  %14 = trunc i32 %13 to i8
  store i8 %14, i8* %1, align 1
  %15 = sext i8 %14 to i32
  %16 = icmp ne i32 %15, 10
  br i1 %16, label %17, label %38

17:                                               ; preds = %12
  %18 = load i8, i8* %1, align 1
  %19 = sext i8 %18 to i32
  %20 = icmp ne i32 %19, 44
  br i1 %20, label %21, label %34

21:                                               ; preds = %17
  %22 = load i32, i32* %2, align 4
  %23 = sext i32 %22 to i64
  %24 = getelementptr inbounds [300 x i32], [300 x i32]* %9, i64 0, i64 %23
  %25 = load i32, i32* %24, align 4
  %26 = mul nsw i32 %25, 10
  %27 = load i8, i8* %1, align 1
  %28 = sext i8 %27 to i32
  %29 = add nsw i32 %26, %28
  %30 = sub nsw i32 %29, 48
  %31 = load i32, i32* %2, align 4
  %32 = sext i32 %31 to i64
  %33 = getelementptr inbounds [300 x i32], [300 x i32]* %9, i64 0, i64 %32
  store i32 %30, i32* %33, align 4
  br label %37

34:                                               ; preds = %17
  %35 = load i32, i32* %2, align 4
  %36 = add nsw i32 %35, 1
  store i32 %36, i32* %2, align 4
  br label %37

37:                                               ; preds = %34, %21
  br label %12

38:                                               ; preds = %12
  store i32 0, i32* %3, align 4
  br label %39

39:                                               ; preds = %53, %38
  %40 = load i32, i32* %3, align 4
  %41 = load i32, i32* %2, align 4
  %42 = icmp sle i32 %40, %41
  br i1 %42, label %43, label %56

43:                                               ; preds = %39
  %44 = load i32, i32* %3, align 4
  %45 = sext i32 %44 to i64
  %46 = getelementptr inbounds [300 x i32], [300 x i32]* %9, i64 0, i64 %45
  %47 = load i32, i32* %46, align 4
  %48 = getelementptr inbounds [300 x i32], [300 x i32]* %9, i64 0, i64 0
  %49 = load i32, i32* %48, align 16
  %50 = icmp ne i32 %47, %49
  br i1 %50, label %51, label %52

51:                                               ; preds = %43
  br label %56

52:                                               ; preds = %43
  br label %53

53:                                               ; preds = %52
  %54 = load i32, i32* %3, align 4
  %55 = add nsw i32 %54, 1
  store i32 %55, i32* %3, align 4
  br label %39

56:                                               ; preds = %51, %39
  %57 = load i32, i32* %3, align 4
  %58 = load i32, i32* %2, align 4
  %59 = add nsw i32 %58, 1
  %60 = icmp eq i32 %57, %59
  br i1 %60, label %61, label %63

61:                                               ; preds = %56
  %62 = call i32 (i8*, ...) @printf(i8* getelementptr inbounds ([3 x i8], [3 x i8]* @.str, i64 0, i64 0))
  br label %163

63:                                               ; preds = %56
  store i32 0, i32* %4, align 4
  br label %64

64:                                               ; preds = %95, %63
  %65 = load i32, i32* %4, align 4
  %66 = load i32, i32* %2, align 4
  %67 = icmp sle i32 %65, %66
  br i1 %67, label %68, label %98

68:                                               ; preds = %64
  store i32 0, i32* %5, align 4
  br label %69

69:                                               ; preds = %85, %68
  %70 = load i32, i32* %5, align 4
  %71 = load i32, i32* %2, align 4
  %72 = icmp sle i32 %70, %71
  br i1 %72, label %73, label %88

73:                                               ; preds = %69
  %74 = load i32, i32* %4, align 4
  %75 = sext i32 %74 to i64
  %76 = getelementptr inbounds [300 x i32], [300 x i32]* %9, i64 0, i64 %75
  %77 = load i32, i32* %76, align 4
  %78 = load i32, i32* %5, align 4
  %79 = sext i32 %78 to i64
  %80 = getelementptr inbounds [300 x i32], [300 x i32]* %9, i64 0, i64 %79
  %81 = load i32, i32* %80, align 4
  %82 = icmp slt i32 %77, %81
  br i1 %82, label %83, label %84

83:                                               ; preds = %73
  br label %88

84:                                               ; preds = %73
  br label %85

85:                                               ; preds = %84
  %86 = load i32, i32* %5, align 4
  %87 = add nsw i32 %86, 1
  store i32 %87, i32* %5, align 4
  br label %69

88:                                               ; preds = %83, %69
  %89 = load i32, i32* %5, align 4
  %90 = load i32, i32* %2, align 4
  %91 = add nsw i32 %90, 1
  %92 = icmp eq i32 %89, %91
  br i1 %92, label %93, label %94

93:                                               ; preds = %88
  br label %98

94:                                               ; preds = %88
  br label %95

95:                                               ; preds = %94
  %96 = load i32, i32* %4, align 4
  %97 = add nsw i32 %96, 1
  store i32 %97, i32* %4, align 4
  br label %64

98:                                               ; preds = %93, %64
  %99 = load i32, i32* %4, align 4
  %100 = sext i32 %99 to i64
  %101 = getelementptr inbounds [300 x i32], [300 x i32]* %9, i64 0, i64 %100
  %102 = load i32, i32* %101, align 4
  store i32 %102, i32* %10, align 4
  store i32 0, i32* %6, align 4
  br label %103

103:                                              ; preds = %119, %98
  %104 = load i32, i32* %6, align 4
  %105 = load i32, i32* %2, align 4
  %106 = icmp sle i32 %104, %105
  br i1 %106, label %107, label %122

107:                                              ; preds = %103
  %108 = load i32, i32* %6, align 4
  %109 = sext i32 %108 to i64
  %110 = getelementptr inbounds [300 x i32], [300 x i32]* %9, i64 0, i64 %109
  %111 = load i32, i32* %110, align 4
  %112 = load i32, i32* %10, align 4
  %113 = icmp eq i32 %111, %112
  br i1 %113, label %114, label %118

114:                                              ; preds = %107
  %115 = load i32, i32* %6, align 4
  %116 = sext i32 %115 to i64
  %117 = getelementptr inbounds [300 x i32], [300 x i32]* %9, i64 0, i64 %116
  store i32 0, i32* %117, align 4
  br label %118

118:                                              ; preds = %114, %107
  br label %119

119:                                              ; preds = %118
  %120 = load i32, i32* %6, align 4
  %121 = add nsw i32 %120, 1
  store i32 %121, i32* %6, align 4
  br label %103

122:                                              ; preds = %103
  store i32 0, i32* %7, align 4
  br label %123

123:                                              ; preds = %154, %122
  %124 = load i32, i32* %7, align 4
  %125 = load i32, i32* %2, align 4
  %126 = icmp sle i32 %124, %125
  br i1 %126, label %127, label %157

127:                                              ; preds = %123
  store i32 0, i32* %8, align 4
  br label %128

128:                                              ; preds = %144, %127
  %129 = load i32, i32* %8, align 4
  %130 = load i32, i32* %2, align 4
  %131 = icmp sle i32 %129, %130
  br i1 %131, label %132, label %147

132:                                              ; preds = %128
  %133 = load i32, i32* %7, align 4
  %134 = sext i32 %133 to i64
  %135 = getelementptr inbounds [300 x i32], [300 x i32]* %9, i64 0, i64 %134
  %136 = load i32, i32* %135, align 4
  %137 = load i32, i32* %8, align 4
  %138 = sext i32 %137 to i64
  %139 = getelementptr inbounds [300 x i32], [300 x i32]* %9, i64 0, i64 %138
  %140 = load i32, i32* %139, align 4
  %141 = icmp slt i32 %136, %140
  br i1 %141, label %142, label %143

142:                                              ; preds = %132
  br label %147

143:                                              ; preds = %132
  br label %144

144:                                              ; preds = %143
  %145 = load i32, i32* %8, align 4
  %146 = add nsw i32 %145, 1
  store i32 %146, i32* %8, align 4
  br label %128

147:                                              ; preds = %142, %128
  %148 = load i32, i32* %8, align 4
  %149 = load i32, i32* %2, align 4
  %150 = add nsw i32 %149, 1
  %151 = icmp eq i32 %148, %150
  br i1 %151, label %152, label %153

152:                                              ; preds = %147
  br label %157

153:                                              ; preds = %147
  br label %154

154:                                              ; preds = %153
  %155 = load i32, i32* %7, align 4
  %156 = add nsw i32 %155, 1
  store i32 %156, i32* %7, align 4
  br label %123

157:                                              ; preds = %152, %123
  %158 = load i32, i32* %7, align 4
  %159 = sext i32 %158 to i64
  %160 = getelementptr inbounds [300 x i32], [300 x i32]* %9, i64 0, i64 %159
  %161 = load i32, i32* %160, align 4
  %162 = call i32 (i8*, ...) @printf(i8* getelementptr inbounds ([3 x i8], [3 x i8]* @.str.1, i64 0, i64 0), i32 %161)
  br label %163

163:                                              ; preds = %157, %61
  ret void
}

; Function Attrs: argmemonly nounwind willreturn
declare void @llvm.memset.p0i8.i64(i8* nocapture writeonly, i8, i64, i1 immarg) #1

declare dso_local i32 @getchar() #2

declare dso_local i32 @printf(i8*, ...) #2


!llvm.module.flags = !{!0}
!llvm.ident = !{!1}

!0 = !{i32 1, !"wchar_size", i32 4}
!1 = !{!"clang version 10.0.0-4ubuntu1 "}
